target datalayout = "e-m:e-p270:32:32-p271:32:32-p272:64:64-i64:64-i128:128-f80:128-n8:16:32:64-S128"
target triple = "x86_64-pc-linux-gnu"

%struct.varatt_indirect = type { ptr }
%struct.varattrib_1b = type { i8, [0 x i8] }
%struct.varattrib_1b_e = type { i8, i8, [0 x i8] }
%struct.anon = type { i32, [0 x i8] }
%struct.varatt_external = type { i32, i32, i32, i32 }

; Function Attrs: inlinehint nounwind uwtable
define internal i64 @PointerGetDatum(ptr noundef %0) #4 {
  %2 = alloca ptr, align 8
  store ptr %0, ptr %2, align 8
  %3 = load ptr, ptr %2, align 8
  %4 = ptrtoint ptr %3 to i64
  ret i64 %4
}

; Function Attrs: inlinehint nounwind uwtable
define internal ptr @DatumGetPointer(i64 noundef %0) #4 {
  %2 = alloca i64, align 8
  store i64 %0, ptr %2, align 8
  %3 = load i64, ptr %2, align 8
  %4 = inttoptr i64 %3 to ptr
  ret ptr %4
}

; Function Attrs: nounwind uwtable
define dso_local i64 @toast_datum_size(i64 noundef %0) #0 {
  %2 = alloca i64, align 8
  %3 = alloca i64, align 8
  %4 = alloca ptr, align 8
  %5 = alloca i64, align 8
  %6 = alloca %struct.varatt_external, align 4
  %7 = alloca ptr, align 8
  %8 = alloca %struct.varatt_indirect, align 8
  %9 = alloca ptr, align 8
  %10 = alloca i32, align 4
  store i64 %0, ptr %3, align 8
  call void @llvm.lifetime.start.p0(i64 8, ptr %4) #7
  %11 = load i64, ptr %3, align 8
  %12 = call ptr @DatumGetPointer(i64 noundef %11)
  store ptr %12, ptr %4, align 8
  call void @llvm.lifetime.start.p0(i64 8, ptr %5) #7
  %13 = load ptr, ptr %4, align 8
  %14 = getelementptr inbounds nuw %struct.varattrib_1b, ptr %13, i32 0, i32 0
  %15 = load i8, ptr %14, align 1
  %16 = zext i8 %15 to i32
  %17 = icmp eq i32 %16, 1
  br i1 %17, label %18, label %36

18:                                               ; preds = %1
  %19 = load ptr, ptr %4, align 8
  %20 = getelementptr inbounds nuw %struct.varattrib_1b_e, ptr %19, i32 0, i32 1
  %21 = load i8, ptr %20, align 1
  %22 = zext i8 %21 to i32
  %23 = icmp eq i32 %22, 18
  br i1 %23, label %24, label %36

24:                                               ; preds = %18
  call void @llvm.lifetime.start.p0(i64 16, ptr %6) #7
  br label %25

25:                                               ; preds = %24
  call void @llvm.lifetime.start.p0(i64 8, ptr %7) #7
  %26 = load ptr, ptr %4, align 8
  store ptr %26, ptr %7, align 8
  %27 = load ptr, ptr %7, align 8
  %28 = getelementptr inbounds nuw %struct.varattrib_1b_e, ptr %27, i32 0, i32 2
  %29 = getelementptr inbounds [0 x i8], ptr %28, i64 0, i64 0
  call void @llvm.memcpy.p0.p0.i64(ptr align 4 %6, ptr align 1 %29, i64 16, i1 false)
  call void @llvm.lifetime.end.p0(i64 8, ptr %7) #7
  br label %30

30:                                               ; preds = %25
  br label %31

31:                                               ; preds = %30
  %32 = getelementptr inbounds nuw %struct.varatt_external, ptr %6, i32 0, i32 1
  %33 = load i32, ptr %32, align 4
  %34 = and i32 %33, 1073741823
  %35 = zext i32 %34 to i64
  store i64 %35, ptr %5, align 8
  call void @llvm.lifetime.end.p0(i64 16, ptr %6) #7
  br label %102

36:                                               ; preds = %18, %1
  %37 = load ptr, ptr %4, align 8
  %38 = getelementptr inbounds nuw %struct.varattrib_1b, ptr %37, i32 0, i32 0
  %39 = load i8, ptr %38, align 1
  %40 = zext i8 %39 to i32
  %41 = icmp eq i32 %40, 1
  br i1 %41, label %42, label %60

42:                                               ; preds = %36
  %43 = load ptr, ptr %4, align 8
  %44 = getelementptr inbounds nuw %struct.varattrib_1b_e, ptr %43, i32 0, i32 1
  %45 = load i8, ptr %44, align 1
  %46 = zext i8 %45 to i32
  %47 = icmp eq i32 %46, 1
  br i1 %47, label %48, label %60

48:                                               ; preds = %42
  call void @llvm.lifetime.start.p0(i64 8, ptr %8) #7
  br label %49

49:                                               ; preds = %48
  call void @llvm.lifetime.start.p0(i64 8, ptr %9) #7
  %50 = load ptr, ptr %4, align 8
  store ptr %50, ptr %9, align 8
  %51 = load ptr, ptr %9, align 8
  %52 = getelementptr inbounds nuw %struct.varattrib_1b_e, ptr %51, i32 0, i32 2
  %53 = getelementptr inbounds [0 x i8], ptr %52, i64 0, i64 0
  call void @llvm.memcpy.p0.p0.i64(ptr align 8 %8, ptr align 1 %53, i64 8, i1 false)
  call void @llvm.lifetime.end.p0(i64 8, ptr %9) #7
  br label %54

54:                                               ; preds = %49
  br label %55

55:                                               ; preds = %54
  %56 = getelementptr inbounds nuw %struct.varatt_indirect, ptr %8, i32 0, i32 0
  %57 = load ptr, ptr %56, align 8
  %58 = call i64 @PointerGetDatum(ptr noundef %57)
  %59 = call i64 @toast_datum_size(i64 noundef %58)
  store i64 %59, ptr %2, align 8
  store i32 1, ptr %10, align 4
  call void @llvm.lifetime.end.p0(i64 8, ptr %8) #7
  br label %104

60:                                               ; preds = %42, %36
  %61 = load ptr, ptr %4, align 8
  %62 = getelementptr inbounds nuw %struct.varattrib_1b, ptr %61, i32 0, i32 0
  %63 = load i8, ptr %62, align 1
  %64 = zext i8 %63 to i32
  %65 = icmp eq i32 %64, 1
  br i1 %65, label %66, label %77

66:                                               ; preds = %60
  %67 = load ptr, ptr %4, align 8
  %68 = getelementptr inbounds nuw %struct.varattrib_1b_e, ptr %67, i32 0, i32 1
  %69 = load i8, ptr %68, align 1
  %70 = zext i8 %69 to i32
  %71 = and i32 %70, -2
  %72 = icmp eq i32 %71, 2
  br i1 %72, label %73, label %77

73:                                               ; preds = %66
  %74 = load i64, ptr %3, align 8
  %75 = call ptr @DatumGetEOHP(i64 noundef %74)
  %76 = call i64 @EOH_get_flat_size(ptr noundef %75)
  store i64 %76, ptr %5, align 8
  br label %100

77:                                               ; preds = %66, %60
  %78 = load ptr, ptr %4, align 8
  %79 = getelementptr inbounds nuw %struct.varattrib_1b, ptr %78, i32 0, i32 0
  %80 = load i8, ptr %79, align 1
  %81 = zext i8 %80 to i32
  %82 = and i32 %81, 1
  %83 = icmp eq i32 %82, 1
  br i1 %83, label %84, label %92

84:                                               ; preds = %77
  %85 = load ptr, ptr %4, align 8
  %86 = getelementptr inbounds nuw %struct.varattrib_1b, ptr %85, i32 0, i32 0
  %87 = load i8, ptr %86, align 1
  %88 = zext i8 %87 to i32
  %89 = ashr i32 %88, 1
  %90 = and i32 %89, 127
  %91 = sext i32 %90 to i64
  store i64 %91, ptr %5, align 8
  br label %99

92:                                               ; preds = %77
  %93 = load ptr, ptr %4, align 8
  %94 = getelementptr inbounds nuw %struct.anon, ptr %93, i32 0, i32 0
  %95 = load i32, ptr %94, align 4
  %96 = lshr i32 %95, 2
  %97 = and i32 %96, 1073741823
  %98 = zext i32 %97 to i64
  store i64 %98, ptr %5, align 8
  br label %99

99:                                               ; preds = %92, %84
  br label %100

100:                                              ; preds = %99, %73
  br label %101

101:                                              ; preds = %100
  br label %102

102:                                              ; preds = %101, %31
  %103 = load i64, ptr %5, align 8
  store i64 %103, ptr %2, align 8
  store i32 1, ptr %10, align 4
  br label %104

104:                                              ; preds = %102, %55
  call void @llvm.lifetime.end.p0(i64 8, ptr %5) #7
  call void @llvm.lifetime.end.p0(i64 8, ptr %4) #7
  %105 = load i64, ptr %2, align 8
  ret i64 %105
}