; Function Attrs: nounwind uwtable
define dso_local i64 @toast_datum_size(i64 noundef %0) local_unnamed_addr #0 {
  %2 = inttoptr i64 %0 to ptr
  %3 = load i8, ptr %2, align 1
  %4 = icmp eq i8 %3, 1
  br i1 %4, label %.lr.ph, label %tailrecurse._crit_edge

.lr.ph:                                           ; preds = %1, %tailrecurse
  %5 = phi ptr [ %.sroa.0.0.copyload, %tailrecurse ], [ %2, %1 ]
  %.tr28 = phi i64 [ %12, %tailrecurse ], [ %0, %1 ]
  %6 = getelementptr inbounds nuw i8, ptr %5, i64 1
  %7 = load i8, ptr %6, align 1
  switch i8 %7, label %15 [
    i8 18, label %8
    i8 1, label %tailrecurse
  ]

8:                                                ; preds = %.lr.ph
  %.sroa.3.0..sroa_idx = getelementptr inbounds nuw i8, ptr %5, i64 6
  %.sroa.3.0.copyload = load i32, ptr %.sroa.3.0..sroa_idx, align 1
  %9 = and i32 %.sroa.3.0.copyload, 1073741823
  %10 = zext nneg i32 %9 to i64
  br label %30

tailrecurse:                                      ; preds = %.lr.ph
  %11 = getelementptr inbounds nuw i8, ptr %5, i64 2
  %.sroa.0.0.copyload = load ptr, ptr %11, align 1
  %12 = ptrtoint ptr %.sroa.0.0.copyload to i64
  %13 = load i8, ptr %.sroa.0.0.copyload, align 1
  %14 = icmp eq i8 %13, 1
  br i1 %14, label %.lr.ph, label %tailrecurse._crit_edge

15:                                               ; preds = %.lr.ph
  %16 = and i8 %7, -2
  %17 = icmp eq i8 %16, 2
  br i1 %17, label %18, label %.thread19

18:                                               ; preds = %15
  %19 = tail call ptr @DatumGetEOHP(i64 noundef %.tr28) #6
  %20 = tail call i64 @EOH_get_flat_size(ptr noundef %19) #6
  br label %30

tailrecurse._crit_edge:                           ; preds = %tailrecurse, %1
  %.lcssa23 = phi ptr [ %2, %1 ], [ %.sroa.0.0.copyload, %tailrecurse ]
  %.lcssa = phi i8 [ %3, %1 ], [ %13, %tailrecurse ]
  %21 = zext i8 %.lcssa to i32
  %22 = and i32 %21, 1
  %.not = icmp eq i32 %22, 0
  br i1 %.not, label %26, label %.thread19

.thread19:                                        ; preds = %15, %tailrecurse._crit_edge
  %23 = phi i32 [ %21, %tailrecurse._crit_edge ], [ 1, %15 ]
  %24 = lshr i32 %23, 1
  %25 = zext nneg i32 %24 to i64
  br label %30

26:                                               ; preds = %tailrecurse._crit_edge
  %27 = load i32, ptr %.lcssa23, align 4
  %28 = lshr i32 %27, 2
  %29 = zext nneg i32 %28 to i64
  br label %30

30:                                               ; preds = %8, %18, %26, %.thread19
  %.0 = phi i64 [ %10, %8 ], [ %20, %18 ], [ %25, %.thread19 ], [ %29, %26 ]
  ret i64 %.0
}